HEADER:
signature:     1EEF
version:       3
num_instr:     742
size_of_instr: 1316
0001 01 | 00 00 00 00 00 00 00 00 | push     0 
000A 01 | 00 00 00 00 00 00 00 00 | push     0 
0013 A2                             pop dx
0014 86                             pop ax
0015 18 | 00 00 00 00 00 00 3E 40 | call :main      30 
001E 0F                             hlt
001F F4                             main: 
0020 01 | 00 00 00 00 00 00 14 40 | push     5 
0029 A0                             push dx
002A 03                             add
002B A2                             pop dx
002C 01 | 00 00 00 00 00 00 F0 3F | push     1 
0035 E3 |                         | pop [dx] 
003E F4                             while1: 
003F E1 |                         | push [dx] 
0048 01 | 00 00 00 00 00 00 18 40 | push     6 
0051 12 | 00 00 00 00 00 A0 63 40 | ja :while0     157 
005A E1 |                         | push [dx] 
0063 18 | 00 00 00 00 00 C8 8D 40 | call :fibonacci     953 
006C A0                             push dx
006D 01 | 00 00 00 00 00 00 08 40 | push     3 
0076 05                             sub
0077 A2                             pop dx
0078 63                             out
0079 E1 |                         | push [dx] 
0082 01 | 00 00 00 00 00 00 F0 3F | push     1 
008B 03                             add
008C E3 |                         | pop [dx] 
0095 18 | 00 00 00 00 00 80 4E 40 | call :while1      61 
009E F4                             while0: 
009F 01 | 00 00 00 00 00 00 F0 3F | push     1 
00A8 E3 |                         | pop [dx] 
00B1 F4                             while3: 
00B2 E1 |                         | push [dx] 
00BB 01 | 00 00 00 00 00 00 1C 40 | push     7 
00c4 13 | 00 00 00 00 00 00 71 40 | jae :while2     272 
00CD E1 |                         | push [dx] 
00d6 18 | 00 00 00 00 00 D4 92 40 | call :factorial    1205 
00DF A0                             push dx
00E0 01 | 00 00 00 00 00 00 F0 3F | push     1 
00E9 05                             sub
00EA A2                             pop dx
00EB 63                             out
00EC E1 |                         | push [dx] 
00F5 01 | 00 00 00 00 00 00 F0 3F | push     1 
00FE 03                             add
00FF E3 |                         | pop [dx] 
0108 18 | 00 00 00 00 00 00 66 40 | call :while3     176 
0111 F4                             while2: 
0112 01 | 00 00 00 00 00 00 00 00 | push     0 
011B E3 | 00 00 00 00 00 00 F0 BF | pop [dx+-1.000000] 
0124 01 | 00 00 00 00 00 00 00 00 | push     0 
012D E3 | 00 00 00 00 00 00 00 C0 | pop [dx+-2.000000] 
0136 01 | 00 00 00 00 00 00 00 00 | push     0 
013F E3 | 00 00 00 00 00 00 08 C0 | pop [dx+-3.000000] 
0148 0C                             in
0149 E3 | 00 00 00 00 00 00 F0 BF | pop [dx+-1.000000] 
0152 0C                             in
0153 E3 | 00 00 00 00 00 00 00 C0 | pop [dx+-2.000000] 
015C 0C                             in
015D E3 | 00 00 00 00 00 00 08 C0 | pop [dx+-3.000000] 
0166 E1 | 00 00 00 00 00 00 F0 BF | push [dx+-1.000000] 
016F E1 | 00 00 00 00 00 00 00 C0 | push [dx+-2.000000] 
0178 E1 | 00 00 00 00 00 00 08 C0 | push [dx+-3.000000] 
0181 18 | 00 00 00 00 00 D0 82 40 | call :solve     602 
018A A0                             push dx
018B 01 | 00 00 00 00 00 00 10 40 | push     4 
0194 05                             sub
0195 A2                             pop dx
0196 E3 | 00 00 00 00 00 00 10 C0 | pop [dx+-4.000000] 
019F 0F                             hlt
01A0 F4                             solvelin: 
01A1 01 | 00 00 00 00 00 00 00 40 | push     2 
01AA A0                             push dx
01AB 03                             add
01AC A2                             pop dx
01AD E3 |                         | pop [dx] 
01B6 E3 | 00 00 00 00 00 00 F0 BF | pop [dx+-1.000000] 
01BF E1 | 00 00 00 00 00 00 F0 BF | push [dx+-1.000000] 
01C8 E1 |                         | push [dx] 
01D1 06                             mul
01D2 01 | 00 00 00 00 00 00 00 00 | push     0 
01db 16 | 00 00 00 00 00 58 80 40 | je :if0     523 
01E4 01 | 00 00 00 00 00 00 F0 3F | push     1 
01ED 63                             out
01EE E1 |                         | push [dx] 
01F7 E1 | 00 00 00 00 00 00 F0 BF | push [dx+-1.000000] 
0200 07                             div
0201 63                             out
0202 01 | 00 00 00 00 00 00 F0 3F | push     1 
020B 19                             rtrn
020C F4                             if0: 
020D E1 |                         | push [dx] 
0216 01 | 00 00 00 00 00 00 00 00 | push     0 
021f 17 | 00 00 00 00 00 28 82 40 | jne :if1     581 
0228 01 | 00 00 00 00 00 00 00 00 | push     0 
0231 01 | 00 00 00 00 00 00 F0 3F | push     1 
023A 05                             sub
023B 63                             out
023C 01 | 00 00 00 00 00 00 00 00 | push     0 
0245 19                             rtrn
0246 F4                             if1: 
0247 01 | 00 00 00 00 00 00 00 00 | push     0 
0250 63                             out
0251 01 | 00 00 00 00 00 00 00 00 | push     0 
025A 19                             rtrn
025B F4                             solve: 
025C 01 | 00 00 00 00 00 00 10 40 | push     4 
0265 A0                             push dx
0266 03                             add
0267 A2                             pop dx
0268 E3 |                         | pop [dx] 
0271 E3 | 00 00 00 00 00 00 F0 BF | pop [dx+-1.000000] 
027A E3 | 00 00 00 00 00 00 00 C0 | pop [dx+-2.000000] 
0283 E1 | 00 00 00 00 00 00 00 C0 | push [dx+-2.000000] 
028C 01 | 00 00 00 00 00 00 00 00 | push     0 
0295 17 | 00 00 00 00 00 28 86 40 | jne :if2     709 
029E E1 | 00 00 00 00 00 00 F0 BF | push [dx+-1.000000] 
02A7 E1 |                         | push [dx] 
02b0 18 | 00 00 00 00 00 F0 79 40 | call :solvelin     415 
02B9 A0                             push dx
02BA 01 | 00 00 00 00 00 00 00 40 | push     2 
02C3 05                             sub
02C4 A2                             pop dx
02C5 19                             rtrn
02C6 F4                             if2: 
02C7 E1 | 00 00 00 00 00 00 F0 BF | push [dx+-1.000000] 
02D0 E1 | 00 00 00 00 00 00 F0 BF | push [dx+-1.000000] 
02D9 06                             mul
02DA 01 | 00 00 00 00 00 00 10 40 | push     4 
02E3 E1 | 00 00 00 00 00 00 00 C0 | push [dx+-2.000000] 
02EC 06                             mul
02ED E1 |                         | push [dx] 
02F6 06                             mul
02F7 05                             sub
02F8 E3 | 00 00 00 00 00 00 08 C0 | pop [dx+-3.000000] 
0301 E1 | 00 00 00 00 00 00 08 C0 | push [dx+-3.000000] 
030A 01 | 00 00 00 00 00 00 00 00 | push     0 
0313 13 | 00 00 00 00 00 28 89 40 | jae :if3     805 
031C 01 | 00 00 00 00 00 00 00 00 | push     0 
0325 19                             rtrn
0326 F4                             if3: 
0327 E1 | 00 00 00 00 00 00 08 C0 | push [dx+-3.000000] 
0330 09                             sqrt
0331 E3 | 00 00 00 00 00 00 08 C0 | pop [dx+-3.000000] 
033A 01 | 00 00 00 00 00 00 00 00 | push     0 
0343 E1 | 00 00 00 00 00 00 F0 BF | push [dx+-1.000000] 
034C 05                             sub
034D E3 | 00 00 00 00 00 00 F0 BF | pop [dx+-1.000000] 
0356 01 | 00 00 00 00 00 00 00 40 | push     2 
035F 63                             out
0360 E1 | 00 00 00 00 00 00 F0 BF | push [dx+-1.000000] 
0369 E1 | 00 00 00 00 00 00 08 C0 | push [dx+-3.000000] 
0372 03                             add
0373 01 | 00 00 00 00 00 00 00 40 | push     2 
037C E1 | 00 00 00 00 00 00 00 C0 | push [dx+-2.000000] 
0385 06                             mul
0386 07                             div
0387 63                             out
0388 E1 | 00 00 00 00 00 00 F0 BF | push [dx+-1.000000] 
0391 E1 | 00 00 00 00 00 00 08 C0 | push [dx+-3.000000] 
039A 05                             sub
039B 01 | 00 00 00 00 00 00 00 40 | push     2 
03A4 E1 | 00 00 00 00 00 00 00 C0 | push [dx+-2.000000] 
03AD 06                             mul
03AE 07                             div
03AF 63                             out
03B0 01 | 00 00 00 00 00 00 00 00 | push     0 
03B9 19                             rtrn
03BA F4                             fibonacci: 
03BB 01 | 00 00 00 00 00 00 08 40 | push     3 
03C4 A0                             push dx
03C5 03                             add
03C6 A2                             pop dx
03C7 E3 |                         | pop [dx] 
03D0 E1 |                         | push [dx] 
03D9 01 | 00 00 00 00 00 00 00 00 | push     0 
03e2 17 | 00 00 00 00 00 A0 8F 40 | jne :if4    1012 
03EB 01 | 00 00 00 00 00 00 00 00 | push     0 
03F4 19                             rtrn
03F5 F4                             if4: 
03F6 E1 |                         | push [dx] 
03FF 01 | 00 00 00 00 00 00 F0 3F | push     1 
0408 17 | 00 00 00 00 00 68 90 40 | jne :if5    1050 
0411 01 | 00 00 00 00 00 00 F0 3F | push     1 
041A 19                             rtrn
041B F4                             if5: 
041C E1 |                         | push [dx] 
0425 01 | 00 00 00 00 00 00 F0 3F | push     1 
042E 05                             sub
042F E3 | 00 00 00 00 00 00 F0 BF | pop [dx+-1.000000] 
0438 E1 |                         | push [dx] 
0441 01 | 00 00 00 00 00 00 00 40 | push     2 
044A 05                             sub
044B E3 | 00 00 00 00 00 00 00 C0 | pop [dx+-2.000000] 
0454 E1 | 00 00 00 00 00 00 F0 BF | push [dx+-1.000000] 
045d 18 | 00 00 00 00 00 C8 8D 40 | call :fibonacci     953 
0466 A0                             push dx
0467 01 | 00 00 00 00 00 00 08 40 | push     3 
0470 05                             sub
0471 A2                             pop dx
0472 E3 | 00 00 00 00 00 00 F0 BF | pop [dx+-1.000000] 
047B E1 | 00 00 00 00 00 00 00 C0 | push [dx+-2.000000] 
0484 18 | 00 00 00 00 00 C8 8D 40 | call :fibonacci     953 
048D A0                             push dx
048E 01 | 00 00 00 00 00 00 08 40 | push     3 
0497 05                             sub
0498 A2                             pop dx
0499 E3 | 00 00 00 00 00 00 00 C0 | pop [dx+-2.000000] 
04A2 E1 | 00 00 00 00 00 00 F0 BF | push [dx+-1.000000] 
04AB E1 | 00 00 00 00 00 00 00 C0 | push [dx+-2.000000] 
04B4 03                             add
04B5 19                             rtrn
04B6 F4                             factorial: 
04B7 01 | 00 00 00 00 00 00 F0 3F | push     1 
04C0 A0                             push dx
04C1 03                             add
04C2 A2                             pop dx
04C3 E3 |                         | pop [dx] 
04CC E1 |                         | push [dx] 
04D5 01 | 00 00 00 00 00 00 F0 3F | push     1 
04de 12 | 00 00 00 00 00 C0 93 40 | ja :if6    1264 
04E7 01 | 00 00 00 00 00 00 F0 3F | push     1 
04F0 19                             rtrn
04F1 F4                             if6: 
04F2 E1 |                         | push [dx] 
04FB 01 | 00 00 00 00 00 00 F0 3F | push     1 
0504 05                             sub
0505 18 | 00 00 00 00 00 D4 92 40 | call :factorial    1205 
050E A0                             push dx
050F 01 | 00 00 00 00 00 00 F0 3F | push     1 
0518 05                             sub
0519 A2                             pop dx
051A E1 |                         | push [dx] 
0523 06                             mul
0524 19                             rtrn