HEADER:
signature:     1EEF
version:       3
num_instr:     662
size_of_instr: 1185
0001 01 | 00 00 00 00 00 00 00 00 | push     0 
000A 01 | 00 00 00 00 00 00 00 00 | push     0 
0013 A2                             pop dx
0014 86                             pop ax
0015 18 | 00 00 00 00 00 00 3E 40 | call :main      30 
001E 0F                             hlt
001F F4                             main: 
0020 01 | 00 00 00 00 00 00 14 40 | push     5 
0029 A0                             push dx
002A 03                             add
002B A2                             pop dx
002C 01 | 00 00 00 00 00 00 00 00 | push     0 
0035 E3 |                         | pop [dx] 
003E 01 | 00 00 00 00 00 00 F0 3F | push     1 
0047 E1 |                         | push [dx] 
0050 05                             sub
0051 E3 |                         | pop [dx] 
005A E1 |                         | push [dx] 
0063 E1 |                         | push [dx] 
006C 21                             pow
006D E3 | 00 00 00 00 00 00 F0 BF | pop [dx+-1.000000] 
0076 01 | 00 00 00 00 00 00 00 00 | push     0 
007F E3 | 00 00 00 00 00 00 00 C0 | pop [dx+-2.000000] 
0088 0C                             in
0089 E3 |                         | pop [dx] 
0092 0C                             in
0093 E3 | 00 00 00 00 00 00 F0 BF | pop [dx+-1.000000] 
009C 0C                             in
009D E3 | 00 00 00 00 00 00 00 C0 | pop [dx+-2.000000] 
00A6 E1 |                         | push [dx] 
00AF E1 | 00 00 00 00 00 00 F0 BF | push [dx+-1.000000] 
00B8 E1 | 00 00 00 00 00 00 00 C0 | push [dx+-2.000000] 
00c1 18 | 00 00 00 00 00 F0 78 40 | call :solve     399 
00CA A0                             push dx
00CB 01 | 00 00 00 00 00 00 10 40 | push     4 
00D4 05                             sub
00D5 A2                             pop dx
00D6 E3 | 00 00 00 00 00 00 08 C0 | pop [dx+-3.000000] 
00DF 01 | 00 00 00 00 00 00 00 00 | push     0 
00E8 E3 | 00 00 00 00 00 00 10 C0 | pop [dx+-4.000000] 
00F1 F4                             while1: 
00F2 E1 | 00 00 00 00 00 00 10 C0 | push [dx+-4.000000] 
00FB 01 | 00 00 00 00 00 00 24 40 | push    10 
0104 13 | 00 00 00 00 00 00 75 40 | jae :while0     336 
010D E1 | 00 00 00 00 00 00 10 C0 | push [dx+-4.000000] 
0116 01 | 00 00 00 00 00 00 F0 3F | push     1 
011F 03                             add
0120 E3 | 00 00 00 00 00 00 10 C0 | pop [dx+-4.000000] 
0129 E1 | 00 00 00 00 00 00 10 C0 | push [dx+-4.000000] 
0132 18 | 00 00 00 00 00 20 87 40 | call :fibonacci     740 
013B A0                             push dx
013C 01 | 00 00 00 00 00 00 08 40 | push     3 
0145 05                             sub
0146 A2                             pop dx
0147 63                             out
0148 18 | 00 00 00 00 00 00 6E 40 | call :while1     240 
0151 F4                             while0: 
0152 19                             rtrn
0153 F4                             solvelin: 
0154 01 | 00 00 00 00 00 00 00 40 | push     2 
015D A0                             push dx
015E 03                             add
015F A2                             pop dx
0160 E3 |                         | pop [dx] 
0169 E3 | 00 00 00 00 00 00 F0 BF | pop [dx+-1.000000] 
0172 E1 | 00 00 00 00 00 00 F0 BF | push [dx+-1.000000] 
017B E1 |                         | push [dx] 
0184 07                             div
0185 63                             out
0186 01 | 00 00 00 00 00 00 F0 3F | push     1 
018F 19                             rtrn
0190 F4                             solve: 
0191 01 | 00 00 00 00 00 00 10 40 | push     4 
019A A0                             push dx
019B 03                             add
019C A2                             pop dx
019D E3 |                         | pop [dx] 
01A6 E3 | 00 00 00 00 00 00 F0 BF | pop [dx+-1.000000] 
01AF E3 | 00 00 00 00 00 00 00 C0 | pop [dx+-2.000000] 
01B8 E1 |                         | push [dx] 
01C1 01 | 00 00 00 00 00 00 00 00 | push     0 
01ca 17 | 00 00 00 00 00 A0 7F 40 | jne :if0     506 
01D3 E1 | 00 00 00 00 00 00 F0 BF | push [dx+-1.000000] 
01DC E1 | 00 00 00 00 00 00 00 C0 | push [dx+-2.000000] 
01e5 18 | 00 00 00 00 00 20 75 40 | call :solvelin     338 
01EE A0                             push dx
01EF 01 | 00 00 00 00 00 00 00 40 | push     2 
01F8 05                             sub
01F9 A2                             pop dx
01FA 19                             rtrn
01FB F4                             if0: 
01FC E1 | 00 00 00 00 00 00 F0 BF | push [dx+-1.000000] 
0205 E1 | 00 00 00 00 00 00 F0 BF | push [dx+-1.000000] 
020E 06                             mul
020F 01 | 00 00 00 00 00 00 10 40 | push     4 
0218 E1 |                         | push [dx] 
0221 06                             mul
0222 E1 | 00 00 00 00 00 00 00 C0 | push [dx+-2.000000] 
022B 06                             mul
022C 05                             sub
022D E3 | 00 00 00 00 00 00 08 C0 | pop [dx+-3.000000] 
0236 E1 | 00 00 00 00 00 00 08 C0 | push [dx+-3.000000] 
023F 01 | 00 00 00 00 00 00 00 00 | push     0 
0248 13 | 00 00 00 00 00 D0 82 40 | jae :if1     602 
0251 01 | 00 00 00 00 00 00 00 00 | push     0 
025A 19                             rtrn
025B F4                             if1: 
025C E1 | 00 00 00 00 00 00 08 C0 | push [dx+-3.000000] 
0265 09                             sqrt
0266 E3 | 00 00 00 00 00 00 08 C0 | pop [dx+-3.000000] 
026F 01 | 00 00 00 00 00 00 00 00 | push     0 
0278 E1 | 00 00 00 00 00 00 F0 BF | push [dx+-1.000000] 
0281 05                             sub
0282 E3 | 00 00 00 00 00 00 F0 BF | pop [dx+-1.000000] 
028B E1 | 00 00 00 00 00 00 F0 BF | push [dx+-1.000000] 
0294 E1 | 00 00 00 00 00 00 08 C0 | push [dx+-3.000000] 
029D 03                             add
029E 01 | 00 00 00 00 00 00 00 40 | push     2 
02A7 E1 |                         | push [dx] 
02B0 06                             mul
02B1 07                             div
02B2 63                             out
02B3 E1 | 00 00 00 00 00 00 F0 BF | push [dx+-1.000000] 
02BC E1 | 00 00 00 00 00 00 08 C0 | push [dx+-3.000000] 
02C5 05                             sub
02C6 01 | 00 00 00 00 00 00 00 40 | push     2 
02CF E1 |                         | push [dx] 
02D8 06                             mul
02D9 07                             div
02DA 63                             out
02DB 01 | 00 00 00 00 00 00 00 40 | push     2 
02E4 19                             rtrn
02E5 F4                             fibonacci: 
02E6 01 | 00 00 00 00 00 00 08 40 | push     3 
02EF A0                             push dx
02F0 03                             add
02F1 A2                             pop dx
02F2 E3 |                         | pop [dx] 
02FB E1 |                         | push [dx] 
0304 01 | 00 00 00 00 00 00 00 00 | push     0 
030d 17 | 00 00 00 00 00 F8 88 40 | jne :if2     799 
0316 01 | 00 00 00 00 00 00 00 00 | push     0 
031F 19                             rtrn
0320 F4                             if2: 
0321 E1 |                         | push [dx] 
032A 01 | 00 00 00 00 00 00 F0 3F | push     1 
0333 17 | 00 00 00 00 00 28 8A 40 | jne :if3     837 
033C 01 | 00 00 00 00 00 00 F0 3F | push     1 
0345 19                             rtrn
0346 F4                             if3: 
0347 E1 |                         | push [dx] 
0350 01 | 00 00 00 00 00 00 F0 3F | push     1 
0359 05                             sub
035A E3 | 00 00 00 00 00 00 F0 BF | pop [dx+-1.000000] 
0363 E1 |                         | push [dx] 
036C 01 | 00 00 00 00 00 00 00 40 | push     2 
0375 05                             sub
0376 E3 | 00 00 00 00 00 00 00 C0 | pop [dx+-2.000000] 
037F E1 | 00 00 00 00 00 00 F0 BF | push [dx+-1.000000] 
0388 18 | 00 00 00 00 00 20 87 40 | call :fibonacci     740 
0391 A0                             push dx
0392 01 | 00 00 00 00 00 00 08 40 | push     3 
039B 05                             sub
039C A2                             pop dx
039D E3 | 00 00 00 00 00 00 F0 BF | pop [dx+-1.000000] 
03A6 E1 | 00 00 00 00 00 00 00 C0 | push [dx+-2.000000] 
03af 18 | 00 00 00 00 00 20 87 40 | call :fibonacci     740 
03B8 A0                             push dx
03B9 01 | 00 00 00 00 00 00 08 40 | push     3 
03C2 05                             sub
03C3 A2                             pop dx
03C4 E3 | 00 00 00 00 00 00 00 C0 | pop [dx+-2.000000] 
03CD E1 | 00 00 00 00 00 00 F0 BF | push [dx+-1.000000] 
03D6 E1 | 00 00 00 00 00 00 00 C0 | push [dx+-2.000000] 
03DF 03                             add
03E0 19                             rtrn
03E1 F4                             factorial: 
03E2 01 | 00 00 00 00 00 00 08 40 | push     3 
03EB A0                             push dx
03EC 03                             add
03ED A2                             pop dx
03EE E3 |                         | pop [dx] 
03F7 E1 |                         | push [dx] 
0400 01 | 00 00 00 00 00 00 F0 3F | push     1 
0409 12 | 00 00 00 00 00 6C 90 40 | ja :if4    1051 
0412 01 | 00 00 00 00 00 00 F0 3F | push     1 
041B 19                             rtrn
041C F4                             if4: 
041D E1 |                         | push [dx] 
0426 01 | 00 00 00 00 00 00 F0 3F | push     1 
042F 05                             sub
0430 E3 |                         | pop [dx] 
0439 E1 |                         | push [dx] 
0442 18 | 00 00 00 00 00 00 8F 40 | call :factorial     992 
044B A0                             push dx
044C 01 | 00 00 00 00 00 00 08 40 | push     3 
0455 05                             sub
0456 A2                             pop dx
0457 E3 | 00 00 00 00 00 00 F0 BF | pop [dx+-1.000000] 
0460 E1 |                         | push [dx] 
0469 01 | 00 00 00 00 00 00 F0 3F | push     1 
0472 03                             add
0473 E3 | 00 00 00 00 00 00 00 C0 | pop [dx+-2.000000] 
047C E1 | 00 00 00 00 00 00 F0 BF | push [dx+-1.000000] 
0485 E1 | 00 00 00 00 00 00 00 C0 | push [dx+-2.000000] 
048E 06                             mul
048F E3 | 00 00 00 00 00 00 F0 BF | pop [dx+-1.000000] 
0498 E1 | 00 00 00 00 00 00 F0 BF | push [dx+-1.000000] 
04A1 19                             rtrn